; ModuleID = '16/244.c'
source_filename = "16/244.c"
target datalayout = "e-m:e-p270:32:32-p271:32:32-p272:64:64-i64:64-f80:128-n8:16:32:64-S128"
target triple = "x86_64-pc-linux-gnu"

@.str = private unnamed_addr constant [3 x i8] c"%d\00", align 1
@.str.1 = private unnamed_addr constant [4 x i8] c"%d\0A\00", align 1
@.str.2 = private unnamed_addr constant [6 x i8] c"%d%d\0A\00", align 1
@.str.3 = private unnamed_addr constant [8 x i8] c"%d%d%d\0A\00", align 1
@.str.4 = private unnamed_addr constant [10 x i8] c"%d%d%d%d\0A\00", align 1

; Function Attrs: noinline nounwind uwtable
define dso_local i32 @main() #0 {
  %1 = alloca i32, align 4
  %2 = alloca i32, align 4
  %3 = alloca i32, align 4
  %4 = alloca i32, align 4
  %5 = alloca i32, align 4
  %6 = alloca i32, align 4
  %7 = alloca i32, align 4
  %8 = alloca i32, align 4
  %9 = alloca i32, align 4
  %10 = alloca i32, align 4
  store i32 0, i32* %1, align 4
  %11 = call i32 (i8*, ...) @__isoc99_scanf(i8* getelementptr inbounds ([3 x i8], [3 x i8]* @.str, i64 0, i64 0), i32* %2)
  %12 = load i32, i32* %2, align 4
  %13 = srem i32 %12, 10
  store i32 %13, i32* %3, align 4
  %14 = load i32, i32* %2, align 4
  %15 = sdiv i32 %14, 10
  store i32 %15, i32* %4, align 4
  %16 = load i32, i32* %2, align 4
  %17 = load i32, i32* %3, align 4
  %18 = sub nsw i32 %16, %17
  %19 = srem i32 %18, 100
  %20 = sdiv i32 %19, 10
  store i32 %20, i32* %5, align 4
  %21 = load i32, i32* %2, align 4
  %22 = sdiv i32 %21, 100
  store i32 %22, i32* %6, align 4
  %23 = load i32, i32* %2, align 4
  %24 = load i32, i32* %3, align 4
  %25 = sub nsw i32 %23, %24
  %26 = load i32, i32* %5, align 4
  %27 = mul nsw i32 %26, 10
  %28 = sub nsw i32 %25, %27
  %29 = srem i32 %28, 1000
  %30 = sdiv i32 %29, 100
  store i32 %30, i32* %7, align 4
  %31 = load i32, i32* %2, align 4
  %32 = sdiv i32 %31, 1000
  store i32 %32, i32* %8, align 4
  %33 = load i32, i32* %2, align 4
  %34 = load i32, i32* %3, align 4
  %35 = sub nsw i32 %33, %34
  %36 = load i32, i32* %5, align 4
  %37 = mul nsw i32 %36, 10
  %38 = sub nsw i32 %35, %37
  %39 = load i32, i32* %7, align 4
  %40 = mul nsw i32 %39, 100
  %41 = sub nsw i32 %38, %40
  %42 = srem i32 %41, 10000
  %43 = sdiv i32 %42, 1000
  store i32 %43, i32* %9, align 4
  %44 = load i32, i32* %2, align 4
  %45 = sdiv i32 %44, 10000
  store i32 %45, i32* %10, align 4
  %46 = load i32, i32* %4, align 4
  %47 = icmp slt i32 %46, 1
  br i1 %47, label %48, label %51

48:                                               ; preds = %0
  %49 = load i32, i32* %2, align 4
  %50 = call i32 (i8*, ...) @printf(i8* getelementptr inbounds ([4 x i8], [4 x i8]* @.str.1, i64 0, i64 0), i32 %49)
  br label %74

51:                                               ; preds = %0
  %52 = load i32, i32* %6, align 4
  %53 = icmp slt i32 %52, 1
  br i1 %53, label %54, label %58

54:                                               ; preds = %51
  %55 = load i32, i32* %3, align 4
  %56 = load i32, i32* %5, align 4
  %57 = call i32 (i8*, ...) @printf(i8* getelementptr inbounds ([6 x i8], [6 x i8]* @.str.2, i64 0, i64 0), i32 %55, i32 %56)
  br label %73

58:                                               ; preds = %51
  %59 = load i32, i32* %8, align 4
  %60 = icmp slt i32 %59, 1
  br i1 %60, label %61, label %66

61:                                               ; preds = %58
  %62 = load i32, i32* %3, align 4
  %63 = load i32, i32* %5, align 4
  %64 = load i32, i32* %7, align 4
  %65 = call i32 (i8*, ...) @printf(i8* getelementptr inbounds ([8 x i8], [8 x i8]* @.str.3, i64 0, i64 0), i32 %62, i32 %63, i32 %64)
  br label %72

66:                                               ; preds = %58
  %67 = load i32, i32* %3, align 4
  %68 = load i32, i32* %5, align 4
  %69 = load i32, i32* %7, align 4
  %70 = load i32, i32* %9, align 4
  %71 = call i32 (i8*, ...) @printf(i8* getelementptr inbounds ([10 x i8], [10 x i8]* @.str.4, i64 0, i64 0), i32 %67, i32 %68, i32 %69, i32 %70)
  br label %72

72:                                               ; preds = %66, %61
  br label %73

73:                                               ; preds = %72, %54
  br label %74

74:                                               ; preds = %73, %48
  %75 = load i32, i32* %1, align 4
  ret i32 %75
}

declare dso_local i32 @__isoc99_scanf(i8*, ...) #1

declare dso_local i32 @printf(i8*, ...) #1


!llvm.module.flags = !{!0}
!llvm.ident = !{!1}

!0 = !{i32 1, !"wchar_size", i32 4}
!1 = !{!"clang version 10.0.0-4ubuntu1 "}
